; Function Attrs: nofree norecurse nosync nounwind memory(argmem: readwrite) uwtable
define void @av_xtea_le_crypt(ptr noundef readonly captures(none) %0, ptr noundef captures(none) %1, ptr noundef readonly captures(none) %2, i32 noundef %3, ptr noundef captures(address_is_null) %4, i32 noundef %5) local_unnamed_addr #2 {
  %.not.i = icmp eq i32 %5, 0
  %.not3950.i = icmp eq i32 %3, 0
  br i1 %.not.i, label %.preheader42.i, label %.preheader43.i

.preheader43.i:                                   ; preds = %6
  br i1 %.not3950.i, label %xtea_crypt.exit, label %.lr.ph.i.preheader

.lr.ph.i.preheader:                               ; preds = %.preheader43.i
  %.not59.i = icmp eq ptr %4, null
  %7 = getelementptr inbounds nuw i8, ptr %4, i64 4
  br i1 %.not59.i, label %.lr.ph.i.us, label %.lr.ph.i

.lr.ph.i.us:                                      ; preds = %.lr.ph.i.preheader, %xtea_le_crypt_ecb.exit14.us
  %.03348.i.us = phi ptr [ %39, %xtea_le_crypt_ecb.exit14.us ], [ %1, %.lr.ph.i.preheader ]
  %.03447.i.us = phi ptr [ %38, %xtea_le_crypt_ecb.exit14.us ], [ %2, %.lr.ph.i.preheader ]
  %.03646.i.us = phi i32 [ %36, %xtea_le_crypt_ecb.exit14.us ], [ %3, %.lr.ph.i.preheader ]
  %8 = load i32, ptr %.03447.i.us, align 1, !tbaa !4
  %9 = getelementptr inbounds nuw i8, ptr %.03447.i.us, i64 4
  %10 = load i32, ptr %9, align 1, !tbaa !4
  br label %.preheader60.i.us

.preheader60.i.us:                                ; preds = %.preheader60.i.us, %.lr.ph.i.us
  %.064.i.us = phi i32 [ %34, %.preheader60.i.us ], [ %8, %.lr.ph.i.us ]
  %.05163.i.us = phi i32 [ %23, %.preheader60.i.us ], [ -957401312, %.lr.ph.i.us ]
  %.05262.i.us = phi i32 [ %22, %.preheader60.i.us ], [ %10, %.lr.ph.i.us ]
  %.05661.i.us = phi i32 [ %35, %.preheader60.i.us ], [ 0, %.lr.ph.i.us ]
  %11 = shl i32 %.064.i.us, 4
  %12 = lshr i32 %.064.i.us, 5
  %13 = xor i32 %11, %12
  %14 = add i32 %13, %.064.i.us
  %15 = lshr i32 %.05163.i.us, 11
  %16 = and i32 %15, 3
  %17 = zext nneg i32 %16 to i64
  %18 = getelementptr inbounds nuw [16 x i32], ptr %0, i64 0, i64 %17
  %19 = load i32, ptr %18, align 4, !tbaa !7
  %20 = add i32 %19, %.05163.i.us
  %21 = xor i32 %20, %14
  %22 = sub i32 %.05262.i.us, %21
  %23 = add i32 %.05163.i.us, 1640531527
  %24 = shl i32 %22, 4
  %25 = lshr i32 %22, 5
  %26 = xor i32 %24, %25
  %27 = add i32 %26, %22
  %28 = and i32 %23, 3
  %29 = zext nneg i32 %28 to i64
  %30 = getelementptr inbounds nuw [16 x i32], ptr %0, i64 0, i64 %29
  %31 = load i32, ptr %30, align 4, !tbaa !7
  %32 = add i32 %31, %23
  %33 = xor i32 %27, %32
  %34 = sub i32 %.064.i.us, %33
  %35 = add nuw nsw i32 %.05661.i.us, 1
  %exitcond.not.i7.us = icmp eq i32 %35, 32
  br i1 %exitcond.not.i7.us, label %xtea_le_crypt_ecb.exit14.us, label %.preheader60.i.us, !llvm.loop !16

xtea_le_crypt_ecb.exit14.us:                      ; preds = %.preheader60.i.us
  %36 = add nsw i32 %.03646.i.us, -1
  store i32 %34, ptr %.03348.i.us, align 1, !tbaa !4
  %37 = getelementptr inbounds nuw i8, ptr %.03348.i.us, i64 4
  store i32 %22, ptr %37, align 1, !tbaa !4
  %38 = getelementptr inbounds nuw i8, ptr %.03447.i.us, i64 8
  %39 = getelementptr inbounds nuw i8, ptr %.03348.i.us, i64 8
  %.not41.i.us = icmp eq i32 %36, 0
  br i1 %.not41.i.us, label %xtea_crypt.exit, label %.lr.ph.i.us, !llvm.loop !14

.preheader42.i:                                   ; preds = %6
  br i1 %.not3950.i, label %xtea_crypt.exit, label %.lr.ph53.i

.lr.ph53.i:                                       ; preds = %.preheader42.i
  %40 = add nsw i32 %3, -1
  %.not40.i = icmp eq ptr %4, null
  br i1 %.not40.i, label %.lr.ph53.split.us.i, label %.preheader.i

.lr.ph53.split.us.i:                              ; preds = %.lr.ph53.i, %xtea_le_crypt_ecb.exit23
  %41 = phi i32 [ %73, %xtea_le_crypt_ecb.exit23 ], [ %40, %.lr.ph53.i ]
  %.152.us.i = phi ptr [ %72, %xtea_le_crypt_ecb.exit23 ], [ %1, %.lr.ph53.i ]
  %.13551.us.i = phi ptr [ %71, %xtea_le_crypt_ecb.exit23 ], [ %2, %.lr.ph53.i ]
  %42 = load i32, ptr %.13551.us.i, align 1, !tbaa !4
  %43 = getelementptr inbounds nuw i8, ptr %.13551.us.i, i64 4
  %44 = load i32, ptr %43, align 1, !tbaa !4
  br label %.preheader.i15

.preheader.i15:                                   ; preds = %.preheader.i15, %.lr.ph53.split.us.i
  %.368.i16 = phi i32 [ %55, %.preheader.i15 ], [ %42, %.lr.ph53.split.us.i ]
  %.05067.i17 = phi i32 [ %56, %.preheader.i15 ], [ 0, %.lr.ph53.split.us.i ]
  %.35566.i18 = phi i32 [ %68, %.preheader.i15 ], [ %44, %.lr.ph53.split.us.i ]
  %.15765.i19 = phi i32 [ %69, %.preheader.i15 ], [ 0, %.lr.ph53.split.us.i ]
  %45 = shl i32 %.35566.i18, 4
  %46 = lshr i32 %.35566.i18, 5
  %47 = xor i32 %45, %46
  %48 = add i32 %47, %.35566.i18
  %49 = and i32 %.05067.i17, 3
  %50 = zext nneg i32 %49 to i64
  %51 = getelementptr inbounds nuw [16 x i32], ptr %0, i64 0, i64 %50
  %52 = load i32, ptr %51, align 4, !tbaa !7
  %53 = add i32 %52, %.05067.i17
  %54 = xor i32 %53, %48
  %55 = add i32 %54, %.368.i16
  %56 = add i32 %.05067.i17, -1640531527
  %57 = shl i32 %55, 4
  %58 = lshr i32 %55, 5
  %59 = xor i32 %57, %58
  %60 = add i32 %59, %55
  %61 = lshr i32 %56, 11
  %62 = and i32 %61, 3
  %63 = zext nneg i32 %62 to i64
  %64 = getelementptr inbounds nuw [16 x i32], ptr %0, i64 0, i64 %63
  %65 = load i32, ptr %64, align 4, !tbaa !7
  %66 = add i32 %65, %56
  %67 = xor i32 %60, %66
  %68 = add i32 %67, %.35566.i18
  %69 = add nuw nsw i32 %.15765.i19, 1
  %exitcond72.not.i20 = icmp eq i32 %69, 32
  br i1 %exitcond72.not.i20, label %xtea_le_crypt_ecb.exit23, label %.preheader.i15, !llvm.loop !17

xtea_le_crypt_ecb.exit23:                         ; preds = %.preheader.i15
  store i32 %55, ptr %.152.us.i, align 1, !tbaa !4
  %70 = getelementptr inbounds nuw i8, ptr %.152.us.i, i64 4
  store i32 %68, ptr %70, align 1, !tbaa !4
  %71 = getelementptr inbounds nuw i8, ptr %.13551.us.i, i64 8
  %72 = getelementptr inbounds nuw i8, ptr %.152.us.i, i64 8
  %73 = add nsw i32 %41, -1
  %.not39.us.i = icmp eq i32 %41, 0
  br i1 %.not39.us.i, label %xtea_crypt.exit, label %.lr.ph53.split.us.i, !llvm.loop !13

.lr.ph.i:                                         ; preds = %.lr.ph.i.preheader, %xtea_le_crypt_ecb.exit14
  %.03348.i = phi ptr [ %110, %xtea_le_crypt_ecb.exit14 ], [ %1, %.lr.ph.i.preheader ]
  %.03447.i = phi ptr [ %109, %xtea_le_crypt_ecb.exit14 ], [ %2, %.lr.ph.i.preheader ]
  %.03646.i = phi i32 [ %102, %xtea_le_crypt_ecb.exit14 ], [ %3, %.lr.ph.i.preheader ]
  %74 = load i32, ptr %.03447.i, align 1, !tbaa !4
  %75 = getelementptr inbounds nuw i8, ptr %.03447.i, i64 4
  %76 = load i32, ptr %75, align 1, !tbaa !4
  br label %.preheader60.i

.preheader60.i:                                   ; preds = %.lr.ph.i, %.preheader60.i
  %.064.i = phi i32 [ %100, %.preheader60.i ], [ %74, %.lr.ph.i ]
  %.05163.i = phi i32 [ %89, %.preheader60.i ], [ -957401312, %.lr.ph.i ]
  %.05262.i = phi i32 [ %88, %.preheader60.i ], [ %76, %.lr.ph.i ]
  %.05661.i = phi i32 [ %101, %.preheader60.i ], [ 0, %.lr.ph.i ]
  %77 = shl i32 %.064.i, 4
  %78 = lshr i32 %.064.i, 5
  %79 = xor i32 %77, %78
  %80 = add i32 %79, %.064.i
  %81 = lshr i32 %.05163.i, 11
  %82 = and i32 %81, 3
  %83 = zext nneg i32 %82 to i64
  %84 = getelementptr inbounds nuw [16 x i32], ptr %0, i64 0, i64 %83
  %85 = load i32, ptr %84, align 4, !tbaa !7
  %86 = add i32 %85, %.05163.i
  %87 = xor i32 %86, %80
  %88 = sub i32 %.05262.i, %87
  %89 = add i32 %.05163.i, 1640531527
  %90 = shl i32 %88, 4
  %91 = lshr i32 %88, 5
  %92 = xor i32 %90, %91
  %93 = add i32 %92, %88
  %94 = and i32 %89, 3
  %95 = zext nneg i32 %94 to i64
  %96 = getelementptr inbounds nuw [16 x i32], ptr %0, i64 0, i64 %95
  %97 = load i32, ptr %96, align 4, !tbaa !7
  %98 = add i32 %97, %89
  %99 = xor i32 %93, %98
  %100 = sub i32 %.064.i, %99
  %101 = add nuw nsw i32 %.05661.i, 1
  %exitcond.not.i7 = icmp eq i32 %101, 32
  br i1 %exitcond.not.i7, label %xtea_le_crypt_ecb.exit14, label %.preheader60.i, !llvm.loop !16

xtea_le_crypt_ecb.exit14:                         ; preds = %.preheader60.i
  %102 = add nsw i32 %.03646.i, -1
  %103 = load i32, ptr %4, align 1, !tbaa !4
  %104 = xor i32 %103, %100
  %105 = load i32, ptr %7, align 1, !tbaa !4
  %106 = xor i32 %105, %88
  %107 = load i64, ptr %.03447.i, align 1
  store i64 %107, ptr %4, align 1
  store i32 %104, ptr %.03348.i, align 1, !tbaa !4
  %108 = getelementptr inbounds nuw i8, ptr %.03348.i, i64 4
  store i32 %106, ptr %108, align 1, !tbaa !4
  %109 = getelementptr inbounds nuw i8, ptr %.03447.i, i64 8
  %110 = getelementptr inbounds nuw i8, ptr %.03348.i, i64 8
  %.not41.i = icmp eq i32 %102, 0
  br i1 %.not41.i, label %xtea_crypt.exit, label %.lr.ph.i, !llvm.loop !14

.preheader.i:                                     ; preds = %.lr.ph53.i, %xtea_le_crypt_ecb.exit
  %111 = phi i32 [ %151, %xtea_le_crypt_ecb.exit ], [ %40, %.lr.ph53.i ]
  %.152.i = phi ptr [ %150, %xtea_le_crypt_ecb.exit ], [ %1, %.lr.ph53.i ]
  %.13551.i = phi ptr [ %149, %xtea_le_crypt_ecb.exit ], [ %2, %.lr.ph53.i ]
  br label %112

112:                                              ; preds = %112, %.preheader.i
  %indvars.iv.i = phi i64 [ 0, %.preheader.i ], [ %indvars.iv.next.i, %112 ]
  %113 = getelementptr inbounds nuw i8, ptr %.13551.i, i64 %indvars.iv.i
  %114 = load i8, ptr %113, align 1, !tbaa !4
  %115 = getelementptr inbounds nuw i8, ptr %4, i64 %indvars.iv.i
  %116 = load i8, ptr %115, align 1, !tbaa !4
  %117 = xor i8 %116, %114
  %118 = getelementptr inbounds nuw i8, ptr %.152.i, i64 %indvars.iv.i
  store i8 %117, ptr %118, align 1, !tbaa !4
  %indvars.iv.next.i = add nuw nsw i64 %indvars.iv.i, 1
  %exitcond.not.i = icmp eq i64 %indvars.iv.next.i, 8
  br i1 %exitcond.not.i, label %119, label %112, !llvm.loop !15

119:                                              ; preds = %112
  %120 = load i32, ptr %.152.i, align 1, !tbaa !4
  %121 = getelementptr inbounds nuw i8, ptr %.152.i, i64 4
  %122 = load i32, ptr %121, align 1, !tbaa !4
  br label %.preheader.i5

.preheader.i5:                                    ; preds = %.preheader.i5, %119
  %.368.i = phi i32 [ %133, %.preheader.i5 ], [ %120, %119 ]
  %.05067.i = phi i32 [ %134, %.preheader.i5 ], [ 0, %119 ]
  %.35566.i = phi i32 [ %146, %.preheader.i5 ], [ %122, %119 ]
  %.15765.i = phi i32 [ %147, %.preheader.i5 ], [ 0, %119 ]
  %123 = shl i32 %.35566.i, 4
  %124 = lshr i32 %.35566.i, 5
  %125 = xor i32 %123, %124
  %126 = add i32 %125, %.35566.i
  %127 = and i32 %.05067.i, 3
  %128 = zext nneg i32 %127 to i64
  %129 = getelementptr inbounds nuw [16 x i32], ptr %0, i64 0, i64 %128
  %130 = load i32, ptr %129, align 4, !tbaa !7
  %131 = add i32 %130, %.05067.i
  %132 = xor i32 %131, %126
  %133 = add i32 %132, %.368.i
  %134 = add i32 %.05067.i, -1640531527
  %135 = shl i32 %133, 4
  %136 = lshr i32 %133, 5
  %137 = xor i32 %135, %136
  %138 = add i32 %137, %133
  %139 = lshr i32 %134, 11
  %140 = and i32 %139, 3
  %141 = zext nneg i32 %140 to i64
  %142 = getelementptr inbounds nuw [16 x i32], ptr %0, i64 0, i64 %141
  %143 = load i32, ptr %142, align 4, !tbaa !7
  %144 = add i32 %143, %134
  %145 = xor i32 %138, %144
  %146 = add i32 %145, %.35566.i
  %147 = add nuw nsw i32 %.15765.i, 1
  %exitcond72.not.i = icmp eq i32 %147, 32
  br i1 %exitcond72.not.i, label %xtea_le_crypt_ecb.exit, label %.preheader.i5, !llvm.loop !17

xtea_le_crypt_ecb.exit:                           ; preds = %.preheader.i5
  store i32 %133, ptr %.152.i, align 1, !tbaa !4
  store i32 %146, ptr %121, align 1, !tbaa !4
  %148 = load i64, ptr %.152.i, align 1
  store i64 %148, ptr %4, align 1
  %149 = getelementptr inbounds nuw i8, ptr %.13551.i, i64 8
  %150 = getelementptr inbounds nuw i8, ptr %.152.i, i64 8
  %151 = add nsw i32 %111, -1
  %.not39.i = icmp eq i32 %111, 0
  br i1 %.not39.i, label %xtea_crypt.exit, label %.preheader.i, !llvm.loop !13

xtea_crypt.exit:                                  ; preds = %xtea_le_crypt_ecb.exit14, %xtea_le_crypt_ecb.exit14.us, %xtea_le_crypt_ecb.exit, %xtea_le_crypt_ecb.exit23, %.preheader43.i, %.preheader42.i
  ret void
}